CCS PCM C Compiler, Version 4.114, 93460303               28-oct.-17 21:05

               Filename: C:\Users\FAMILIA-LEON\Desktop\MAFE PIC\MAFE PIC PROGRAM.lst

               ROM used: 585 words (7%)
                         Largest free fragment is 2048
               RAM used: 9 (2%) at main() level
                         10 (3%) worst case
               Stack:    1 locations

*
0000:  MOVLW  00
0001:  MOVWF  0A
0002:  GOTO   02D
0003:  NOP
.................... #include <16f877a.h> 
.................... //////// Standard Header file for the PIC16F877A device //////////////// 
.................... #device PIC16F877A 
.................... #list 
....................  
.................... #fuses NOWDT, XT, NOPUT, NOPROTECT, NODEBUG, NOBROWNOUT, NOLVP, NOCPD, NOWRT  
.................... #use delay (clock = 4M) 
*
0004:  MOVLW  24
0005:  MOVWF  04
0006:  BCF    03.7
0007:  MOVF   00,W
0008:  BTFSC  03.2
0009:  GOTO   018
000A:  MOVLW  01
000B:  MOVWF  78
000C:  CLRF   77
000D:  DECFSZ 77,F
000E:  GOTO   00D
000F:  DECFSZ 78,F
0010:  GOTO   00C
0011:  MOVLW  4A
0012:  MOVWF  77
0013:  DECFSZ 77,F
0014:  GOTO   013
0015:  GOTO   016
0016:  DECFSZ 00,F
0017:  GOTO   00A
0018:  RETURN
0019:  MOVLW  12
001A:  SUBWF  24,F
001B:  BTFSS  03.0
001C:  GOTO   02C
001D:  MOVLW  24
001E:  MOVWF  04
001F:  BCF    03.7
0020:  MOVLW  FC
0021:  ANDWF  00,F
0022:  BCF    03.0
0023:  RRF    00,F
0024:  RRF    00,F
0025:  MOVF   00,W
0026:  BTFSC  03.2
0027:  GOTO   02C
0028:  GOTO   02A
0029:  NOP
002A:  DECFSZ 00,F
002B:  GOTO   029
002C:  RETURN
.................... #use RS232(BAUD=9600, BITS=8, PARITY=N, XMIT=PIN_C6, RCV=PIN_C7) 
....................  
.................... char valor; 
.................... int open; 
.................... int close; 
....................  
.................... void main() 
.................... { 
002D:  CLRF   04
002E:  BCF    03.7
002F:  MOVLW  1F
0030:  ANDWF  03,F
0031:  MOVLW  19
0032:  BSF    03.5
0033:  MOVWF  19
0034:  MOVLW  A6
0035:  MOVWF  18
0036:  MOVLW  90
0037:  BCF    03.5
0038:  MOVWF  18
0039:  BSF    03.5
003A:  BSF    1F.0
003B:  BSF    1F.1
003C:  BSF    1F.2
003D:  BCF    1F.3
003E:  MOVLW  07
003F:  MOVWF  1C
.................... set_tris_a(0b000000); 
0040:  MOVLW  00
0041:  MOVWF  05
.................... set_tris_b(0b00000000); 
0042:  MOVWF  06
.................... set_tris_d(0b00000000); 
0043:  MOVWF  08
.................... set_tris_e(0b000); 
0044:  BCF    09.0
0045:  BCF    09.1
0046:  BCF    09.2
.................... output_a(0b0000000); 
0047:  CLRF   05
0048:  BCF    03.5
0049:  CLRF   05
.................... output_b(0b00000000); 
004A:  BSF    03.5
004B:  CLRF   06
004C:  BCF    03.5
004D:  CLRF   06
.................... output_d(0b00000000); 
004E:  BSF    03.5
004F:  CLRF   08
0050:  BCF    03.5
0051:  CLRF   08
.................... output_e(0b000); 
0052:  BSF    03.5
0053:  BCF    09.0
0054:  BCF    09.1
0055:  BCF    09.2
0056:  BCF    03.5
0057:  CLRF   09
....................  
.................... output_low(pin_D3); 
0058:  BSF    03.5
0059:  BCF    08.3
005A:  BCF    03.5
005B:  BCF    08.3
.................... output_low(pin_D2); 
005C:  BSF    03.5
005D:  BCF    08.2
005E:  BCF    03.5
005F:  BCF    08.2
.................... output_low(pin_D1); 
0060:  BSF    03.5
0061:  BCF    08.1
0062:  BCF    03.5
0063:  BCF    08.1
.................... output_low(pin_D0); 
0064:  BSF    03.5
0065:  BCF    08.0
0066:  BCF    03.5
0067:  BCF    08.0
....................  
.................... while (true){ 
....................  
.................... valor=getc(); 
0068:  BTFSS  0C.5
0069:  GOTO   068
006A:  MOVF   1A,W
006B:  MOVWF  20
....................  
.................... switch(valor)  
....................  
.................... { 
006C:  MOVLW  30
006D:  SUBWF  20,W
006E:  ADDLW  D6
006F:  BTFSC  03.0
0070:  GOTO   219
0071:  ADDLW  2A
0072:  GOTO   21B
.................... case '1': 
.................... output_high(pin_D4); 
0073:  BSF    03.5
0074:  BCF    08.4
0075:  BCF    03.5
0076:  BSF    08.4
.................... output_low(pin_D3); 
0077:  BSF    03.5
0078:  BCF    08.3
0079:  BCF    03.5
007A:  BCF    08.3
.................... output_low(pin_D2); 
007B:  BSF    03.5
007C:  BCF    08.2
007D:  BCF    03.5
007E:  BCF    08.2
.................... output_low(pin_D1); 
007F:  BSF    03.5
0080:  BCF    08.1
0081:  BCF    03.5
0082:  BCF    08.1
.................... output_low(pin_D0); 
0083:  BSF    03.5
0084:  BCF    08.0
0085:  BCF    03.5
0086:  BCF    08.0
.................... break; 
0087:  GOTO   219
....................  
.................... case '2': 
.................... output_high(pin_D3); 
0088:  BSF    03.5
0089:  BCF    08.3
008A:  BCF    03.5
008B:  BSF    08.3
.................... output_low(pin_D4); 
008C:  BSF    03.5
008D:  BCF    08.4
008E:  BCF    03.5
008F:  BCF    08.4
.................... output_low(pin_D2); 
0090:  BSF    03.5
0091:  BCF    08.2
0092:  BCF    03.5
0093:  BCF    08.2
.................... output_low(pin_D1); 
0094:  BSF    03.5
0095:  BCF    08.1
0096:  BCF    03.5
0097:  BCF    08.1
.................... output_low(pin_D0); 
0098:  BSF    03.5
0099:  BCF    08.0
009A:  BCF    03.5
009B:  BCF    08.0
.................... break; 
009C:  GOTO   219
....................  
.................... case '3': 
.................... output_high(pin_D2); 
009D:  BSF    03.5
009E:  BCF    08.2
009F:  BCF    03.5
00A0:  BSF    08.2
.................... output_low(pin_D3); 
00A1:  BSF    03.5
00A2:  BCF    08.3
00A3:  BCF    03.5
00A4:  BCF    08.3
.................... output_low(pin_D4); 
00A5:  BSF    03.5
00A6:  BCF    08.4
00A7:  BCF    03.5
00A8:  BCF    08.4
.................... output_low(pin_D1); 
00A9:  BSF    03.5
00AA:  BCF    08.1
00AB:  BCF    03.5
00AC:  BCF    08.1
.................... output_low(pin_D0); 
00AD:  BSF    03.5
00AE:  BCF    08.0
00AF:  BCF    03.5
00B0:  BCF    08.0
.................... break; 
00B1:  GOTO   219
....................  
.................... case '4': 
.................... output_high(pin_D1); 
00B2:  BSF    03.5
00B3:  BCF    08.1
00B4:  BCF    03.5
00B5:  BSF    08.1
.................... output_low(pin_D3); 
00B6:  BSF    03.5
00B7:  BCF    08.3
00B8:  BCF    03.5
00B9:  BCF    08.3
.................... output_low(pin_D4); 
00BA:  BSF    03.5
00BB:  BCF    08.4
00BC:  BCF    03.5
00BD:  BCF    08.4
.................... output_low(pin_D2); 
00BE:  BSF    03.5
00BF:  BCF    08.2
00C0:  BCF    03.5
00C1:  BCF    08.2
.................... output_low(pin_D0); 
00C2:  BSF    03.5
00C3:  BCF    08.0
00C4:  BCF    03.5
00C5:  BCF    08.0
.................... break; 
00C6:  GOTO   219
....................  
.................... case '5': 
.................... output_high(pin_D0); 
00C7:  BSF    03.5
00C8:  BCF    08.0
00C9:  BCF    03.5
00CA:  BSF    08.0
.................... output_low(pin_D3); 
00CB:  BSF    03.5
00CC:  BCF    08.3
00CD:  BCF    03.5
00CE:  BCF    08.3
.................... output_low(pin_D2); 
00CF:  BSF    03.5
00D0:  BCF    08.2
00D1:  BCF    03.5
00D2:  BCF    08.2
.................... output_low(pin_D1); 
00D3:  BSF    03.5
00D4:  BCF    08.1
00D5:  BCF    03.5
00D6:  BCF    08.1
.................... output_low(pin_D4); 
00D7:  BSF    03.5
00D8:  BCF    08.4
00D9:  BCF    03.5
00DA:  BCF    08.4
.................... break; 
00DB:  GOTO   219
....................  
.................... case '0': 
.................... output_low(pin_B0); 
00DC:  BSF    03.5
00DD:  BCF    06.0
00DE:  BCF    03.5
00DF:  BCF    06.0
.................... output_low(pin_B1); 
00E0:  BSF    03.5
00E1:  BCF    06.1
00E2:  BCF    03.5
00E3:  BCF    06.1
.................... output_low(pin_B2); 
00E4:  BSF    03.5
00E5:  BCF    06.2
00E6:  BCF    03.5
00E7:  BCF    06.2
.................... output_low(pin_B3); 
00E8:  BSF    03.5
00E9:  BCF    06.3
00EA:  BCF    03.5
00EB:  BCF    06.3
.................... output_low(pin_B4); 
00EC:  BSF    03.5
00ED:  BCF    06.4
00EE:  BCF    03.5
00EF:  BCF    06.4
.................... output_low(pin_B5); 
00F0:  BSF    03.5
00F1:  BCF    06.5
00F2:  BCF    03.5
00F3:  BCF    06.5
.................... output_low(pin_B6); 
00F4:  BSF    03.5
00F5:  BCF    06.6
00F6:  BCF    03.5
00F7:  BCF    06.6
.................... output_low(pin_B7); 
00F8:  BSF    03.5
00F9:  BCF    06.7
00FA:  BCF    03.5
00FB:  BCF    06.7
.................... output_low(pin_E2); 
00FC:  BSF    03.5
00FD:  BCF    09.2
00FE:  BCF    03.5
00FF:  BCF    09.2
.................... break; 
0100:  GOTO   219
....................  
.................... case '6': 
.................... output_high(pin_B0); 
0101:  BSF    03.5
0102:  BCF    06.0
0103:  BCF    03.5
0104:  BSF    06.0
.................... break; 
0105:  GOTO   219
....................  
.................... case '7': 
.................... output_low(pin_B0); 
0106:  BSF    03.5
0107:  BCF    06.0
0108:  BCF    03.5
0109:  BCF    06.0
.................... break; 
010A:  GOTO   219
....................  
.................... case '8': 
.................... output_high(pin_B1); 
010B:  BSF    03.5
010C:  BCF    06.1
010D:  BCF    03.5
010E:  BSF    06.1
.................... break; 
010F:  GOTO   219
....................  
.................... case '9': 
.................... output_low(pin_B1); 
0110:  BSF    03.5
0111:  BCF    06.1
0112:  BCF    03.5
0113:  BCF    06.1
.................... break; 
0114:  GOTO   219
....................  
.................... case 'A': 
.................... output_high(pin_B2); 
0115:  BSF    03.5
0116:  BCF    06.2
0117:  BCF    03.5
0118:  BSF    06.2
.................... break; 
0119:  GOTO   219
....................  
.................... case 'B': 
.................... output_low(pin_B2); 
011A:  BSF    03.5
011B:  BCF    06.2
011C:  BCF    03.5
011D:  BCF    06.2
.................... break; 
011E:  GOTO   219
....................  
.................... case 'C': 
.................... output_high(pin_B3); 
011F:  BSF    03.5
0120:  BCF    06.3
0121:  BCF    03.5
0122:  BSF    06.3
.................... break; 
0123:  GOTO   219
....................  
.................... case 'D': 
.................... output_low(pin_B3); 
0124:  BSF    03.5
0125:  BCF    06.3
0126:  BCF    03.5
0127:  BCF    06.3
.................... break; 
0128:  GOTO   219
....................  
.................... case 'E': 
.................... output_high(pin_B4); 
0129:  BSF    03.5
012A:  BCF    06.4
012B:  BCF    03.5
012C:  BSF    06.4
.................... break; 
012D:  GOTO   219
....................  
.................... case 'F': 
.................... output_low(pin_B4); 
012E:  BSF    03.5
012F:  BCF    06.4
0130:  BCF    03.5
0131:  BCF    06.4
.................... break; 
0132:  GOTO   219
....................  
.................... case 'G': 
.................... output_high(pin_B5); 
0133:  BSF    03.5
0134:  BCF    06.5
0135:  BCF    03.5
0136:  BSF    06.5
.................... break; 
0137:  GOTO   219
....................  
.................... case 'H': 
.................... output_low(pin_B5); 
0138:  BSF    03.5
0139:  BCF    06.5
013A:  BCF    03.5
013B:  BCF    06.5
.................... break; 
013C:  GOTO   219
....................  
.................... case 'I': 
.................... output_high(pin_B6); 
013D:  BSF    03.5
013E:  BCF    06.6
013F:  BCF    03.5
0140:  BSF    06.6
.................... break; 
0141:  GOTO   219
....................  
.................... case 'J': 
.................... output_low(pin_B6); 
0142:  BSF    03.5
0143:  BCF    06.6
0144:  BCF    03.5
0145:  BCF    06.6
.................... break; 
0146:  GOTO   219
....................  
.................... case 'K': 
.................... output_high(pin_B7); 
0147:  BSF    03.5
0148:  BCF    06.7
0149:  BCF    03.5
014A:  BSF    06.7
.................... break; 
014B:  GOTO   219
....................  
.................... case 'L': 
.................... output_low(pin_B7); 
014C:  BSF    03.5
014D:  BCF    06.7
014E:  BCF    03.5
014F:  BCF    06.7
.................... break; 
0150:  GOTO   219
....................  
.................... case 'M': 
.................... for(open=0;open<=60;open++){ 
0151:  CLRF   21
0152:  MOVF   21,W
0153:  SUBLW  3C
0154:  BTFSS  03.0
0155:  GOTO   16F
....................    output_high(pin_E1); 
0156:  BSF    03.5
0157:  BCF    09.1
0158:  BCF    03.5
0159:  BSF    09.1
....................    delay_us(500); 
015A:  MOVLW  A6
015B:  MOVWF  77
015C:  DECFSZ 77,F
015D:  GOTO   15C
015E:  NOP
....................    output_low(pin_E1); 
015F:  BSF    03.5
0160:  BCF    09.1
0161:  BCF    03.5
0162:  BCF    09.1
....................    delay_us(19500); 
0163:  MOVLW  13
0164:  MOVWF  24
0165:  CALL   004
0166:  MOVLW  02
0167:  MOVWF  23
0168:  MOVLW  F7
0169:  MOVWF  24
016A:  CALL   019
016B:  DECFSZ 23,F
016C:  GOTO   168
.................... } 
016D:  INCF   21,F
016E:  GOTO   152
.................... break; 
016F:  GOTO   219
....................  
.................... case 'N': 
.................... for(close=0;close<=60;close++){ 
0170:  CLRF   22
0171:  MOVF   22,W
0172:  SUBLW  3C
0173:  BTFSS  03.0
0174:  GOTO   193
....................    output_high(pin_E1); 
0175:  BSF    03.5
0176:  BCF    09.1
0177:  BCF    03.5
0178:  BSF    09.1
....................    delay_us(1500); 
0179:  MOVLW  01
017A:  MOVWF  24
017B:  CALL   004
017C:  MOVLW  02
017D:  MOVWF  23
017E:  MOVLW  F7
017F:  MOVWF  24
0180:  CALL   019
0181:  DECFSZ 23,F
0182:  GOTO   17E
....................    output_low(pin_E1); 
0183:  BSF    03.5
0184:  BCF    09.1
0185:  BCF    03.5
0186:  BCF    09.1
....................    delay_us(18500); 
0187:  MOVLW  12
0188:  MOVWF  24
0189:  CALL   004
018A:  MOVLW  02
018B:  MOVWF  23
018C:  MOVLW  F7
018D:  MOVWF  24
018E:  CALL   019
018F:  DECFSZ 23,F
0190:  GOTO   18C
.................... } 
0191:  INCF   22,F
0192:  GOTO   171
.................... break; 
0193:  GOTO   219
....................  
.................... case 'O': 
.................... output_high(pin_A0); 
0194:  BSF    03.5
0195:  BCF    05.0
0196:  BCF    03.5
0197:  BSF    05.0
.................... output_low(pin_A1); 
0198:  BSF    03.5
0199:  BCF    05.1
019A:  BCF    03.5
019B:  BCF    05.1
.................... delay_ms(5000); 
019C:  MOVLW  14
019D:  MOVWF  23
019E:  MOVLW  FA
019F:  MOVWF  24
01A0:  CALL   004
01A1:  DECFSZ 23,F
01A2:  GOTO   19E
.................... output_low(pin_A0); 
01A3:  BSF    03.5
01A4:  BCF    05.0
01A5:  BCF    03.5
01A6:  BCF    05.0
.................... output_low(pin_A1); 
01A7:  BSF    03.5
01A8:  BCF    05.1
01A9:  BCF    03.5
01AA:  BCF    05.1
.................... break; 
01AB:  GOTO   219
....................  
.................... case 'P': 
.................... output_high(pin_A1); 
01AC:  BSF    03.5
01AD:  BCF    05.1
01AE:  BCF    03.5
01AF:  BSF    05.1
.................... output_low(pin_A0); 
01B0:  BSF    03.5
01B1:  BCF    05.0
01B2:  BCF    03.5
01B3:  BCF    05.0
.................... delay_ms(4500); 
01B4:  MOVLW  12
01B5:  MOVWF  23
01B6:  MOVLW  FA
01B7:  MOVWF  24
01B8:  CALL   004
01B9:  DECFSZ 23,F
01BA:  GOTO   1B6
.................... output_low(pin_A0); 
01BB:  BSF    03.5
01BC:  BCF    05.0
01BD:  BCF    03.5
01BE:  BCF    05.0
.................... output_low(pin_A1); 
01BF:  BSF    03.5
01C0:  BCF    05.1
01C1:  BCF    03.5
01C2:  BCF    05.1
.................... break; 
01C3:  GOTO   219
....................  
.................... case 'Q': 
.................... output_high(pin_A2); 
01C4:  BSF    03.5
01C5:  BCF    05.2
01C6:  BCF    03.5
01C7:  BSF    05.2
.................... output_low(pin_A3); 
01C8:  BSF    03.5
01C9:  BCF    05.3
01CA:  BCF    03.5
01CB:  BCF    05.3
.................... delay_ms(300); 
01CC:  MOVLW  02
01CD:  MOVWF  23
01CE:  MOVLW  96
01CF:  MOVWF  24
01D0:  CALL   004
01D1:  DECFSZ 23,F
01D2:  GOTO   1CE
.................... output_low(pin_A2); 
01D3:  BSF    03.5
01D4:  BCF    05.2
01D5:  BCF    03.5
01D6:  BCF    05.2
.................... output_low(pin_A3); 
01D7:  BSF    03.5
01D8:  BCF    05.3
01D9:  BCF    03.5
01DA:  BCF    05.3
.................... break; 
01DB:  GOTO   219
....................  
.................... case 'R': 
.................... output_high(pin_A3); 
01DC:  BSF    03.5
01DD:  BCF    05.3
01DE:  BCF    03.5
01DF:  BSF    05.3
.................... output_low(pin_A2); 
01E0:  BSF    03.5
01E1:  BCF    05.2
01E2:  BCF    03.5
01E3:  BCF    05.2
.................... delay_ms(300); 
01E4:  MOVLW  02
01E5:  MOVWF  23
01E6:  MOVLW  96
01E7:  MOVWF  24
01E8:  CALL   004
01E9:  DECFSZ 23,F
01EA:  GOTO   1E6
.................... output_low(pin_A2); 
01EB:  BSF    03.5
01EC:  BCF    05.2
01ED:  BCF    03.5
01EE:  BCF    05.2
.................... output_low(pin_A3); 
01EF:  BSF    03.5
01F0:  BCF    05.3
01F1:  BCF    03.5
01F2:  BCF    05.3
.................... break; 
01F3:  GOTO   219
....................  
.................... case 'U': 
.................... output_high(pin_E0); 
01F4:  BSF    03.5
01F5:  BCF    09.0
01F6:  BCF    03.5
01F7:  BSF    09.0
.................... output_low(pin_A5); 
01F8:  BSF    03.5
01F9:  BCF    05.5
01FA:  BCF    03.5
01FB:  BCF    05.5
.................... break; 
01FC:  GOTO   219
....................  
.................... case 'V': 
.................... output_high(pin_A5); 
01FD:  BSF    03.5
01FE:  BCF    05.5
01FF:  BCF    03.5
0200:  BSF    05.5
.................... output_low(pin_E0); 
0201:  BSF    03.5
0202:  BCF    09.0
0203:  BCF    03.5
0204:  BCF    09.0
.................... break; 
0205:  GOTO   219
....................  
.................... case 'W': 
.................... output_high(pin_E2); 
0206:  BSF    03.5
0207:  BCF    09.2
0208:  BCF    03.5
0209:  BSF    09.2
.................... break; 
020A:  GOTO   219
....................  
.................... case 'X': 
.................... output_low(pin_E2); 
020B:  BSF    03.5
020C:  BCF    09.2
020D:  BCF    03.5
020E:  BCF    09.2
.................... break; 
020F:  GOTO   219
....................  
.................... case 'Y': 
.................... output_low(pin_A5); 
0210:  BSF    03.5
0211:  BCF    05.5
0212:  BCF    03.5
0213:  BCF    05.5
.................... output_low(pin_E0); 
0214:  BSF    03.5
0215:  BCF    09.0
0216:  BCF    03.5
0217:  BCF    09.0
.................... break; 
0218:  GOTO   219
.................... } 
....................  
.................... } 
0219:  GOTO   068
.................... } 
....................  
021A:  SLEEP

Configuration Fuses:
   Word  1: 3F39   XT NOWDT NOPUT NOBROWNOUT NOLVP NOCPD NOWRT NODEBUG NOPROTECT
